target datalayout = "e-m:e-p270:32:32-p271:32:32-p272:64:64-i64:64-i128:128-f80:128-n8:16:32:64-S128"
target triple = "x86_64-pc-linux-gnu"

%"class.__gnu_cxx::__normal_iterator.89" = type { ptr }
%struct.em_state = type { %class.t_state, %"class.gmx::ForceBuffers", float, float, float, i32 }
%class.t_state = type { i32, i32, i32, i32, i32, i32, %"struct.gmx::EnumerationArray.79", [3 x [3 x float]], [3 x [3 x float]], [3 x [3 x float]], [3 x [3 x float]], [3 x [3 x float]], [3 x [3 x float]], %"class.std::vector.80", %"class.std::vector.80", %"class.std::vector.80", %"class.std::vector.80", %"class.std::vector.80", double, float, float, %"class.gmx::PaddedVector.85", %"class.gmx::PaddedVector.85", %"class.gmx::PaddedVector.85", %class.ekinstate_t, %class.history_t, ptr, %"class.std::shared_ptr", i32, i32, %"class.std::vector.95", %"class.std::vector.80" }
%"struct.gmx::EnumerationArray.79" = type { [7 x float] }
%"class.gmx::PaddedVector.85" = type { %"class.std::vector.86", %"class.__gnu_cxx::__normal_iterator.89" }
%"class.std::vector.86" = type { %"struct.std::_Vector_base.87" }
%"struct.std::_Vector_base.87" = type { %"struct.std::_Vector_base<gmx::BasicVector<float>, gmx::Allocator<gmx::BasicVector<float>, gmx::HostAllocationPolicy>>::_Vector_impl" }
%"struct.std::_Vector_base<gmx::BasicVector<float>, gmx::Allocator<gmx::BasicVector<float>, gmx::HostAllocationPolicy>>::_Vector_impl" = type { %"class.gmx::Allocator.88", %"struct.std::_Vector_base<gmx::BasicVector<float>, gmx::Allocator<gmx::BasicVector<float>, gmx::HostAllocationPolicy>>::_Vector_impl_data" }
%"class.gmx::Allocator.88" = type { %"class.gmx::HostAllocationPolicy" }
%"class.gmx::HostAllocationPolicy" = type { i32 }
%"struct.std::_Vector_base<gmx::BasicVector<float>, gmx::Allocator<gmx::BasicVector<float>, gmx::HostAllocationPolicy>>::_Vector_impl_data" = type { ptr, ptr, ptr }
%class.ekinstate_t = type <{ i8, [3 x i8], i32, ptr, ptr, ptr, [3 x [3 x float]], [4 x i8], %"class.std::vector.80", %"class.std::vector.80", %"class.std::vector.80", float, float, i8, [7 x i8] }>
%class.history_t = type { float, %"class.std::vector.90", float, %"class.std::vector.90" }
%"class.std::vector.90" = type { %"struct.std::_Vector_base.91" }
%"struct.std::_Vector_base.91" = type { %"struct.std::_Vector_base<float, std::allocator<float>>::_Vector_impl" }
%"struct.std::_Vector_base<float, std::allocator<float>>::_Vector_impl" = type { %"struct.std::_Vector_base<float, std::allocator<float>>::_Vector_impl_data" }
%"struct.std::_Vector_base<float, std::allocator<float>>::_Vector_impl_data" = type { ptr, ptr, ptr }
%"class.std::shared_ptr" = type { %"class.std::__shared_ptr" }
%"class.std::__shared_ptr" = type { ptr, %"class.std::__shared_count" }
%"class.std::__shared_count" = type { ptr }
%"class.std::vector.95" = type { %"struct.std::_Vector_base.96" }
%"struct.std::_Vector_base.96" = type { %"struct.std::_Vector_base<int, std::allocator<int>>::_Vector_impl" }
%"struct.std::_Vector_base<int, std::allocator<int>>::_Vector_impl" = type { %"struct.std::_Vector_base<int, std::allocator<int>>::_Vector_impl_data" }
%"struct.std::_Vector_base<int, std::allocator<int>>::_Vector_impl_data" = type { ptr, ptr, ptr }
%"class.std::vector.80" = type { %"struct.std::_Vector_base.81" }
%"struct.std::_Vector_base.81" = type { %"struct.std::_Vector_base<double, std::allocator<double>>::_Vector_impl" }
%"struct.std::_Vector_base<double, std::allocator<double>>::_Vector_impl" = type { %"struct.std::_Vector_base<double, std::allocator<double>>::_Vector_impl_data" }
%"struct.std::_Vector_base<double, std::allocator<double>>::_Vector_impl_data" = type { ptr, ptr, ptr }
%"class.gmx::ForceBuffers" = type <{ %"class.gmx::PaddedVector.85", %"class.gmx::PaddedVector.85", %"class.gmx::ForceBuffersView", i8, [7 x i8] }>
%"class.gmx::ForceBuffersView" = type <{ %"class.gmx::ArrayRefWithPadding", %"class.gmx::ArrayRefWithPadding", i8, [7 x i8] }>
%"class.gmx::ArrayRefWithPadding" = type { ptr, ptr, ptr }

@.str.94 = private unnamed_addr constant [40 x i8] c"\0A%s converged to Fmax < %g in %s steps\0A\00", align 1
@.str.95 = private unnamed_addr constant [92 x i8] c"\0A%s converged to machine precision in %s steps,\0Abut did not reach the requested Fmax < %g.\0A\00", align 1
@.str.96 = private unnamed_addr constant [48 x i8] c"\0A%s did not converge to Fmax < %g in %s steps.\0A\00", align 1
@.str.97 = private unnamed_addr constant [28 x i8] c"Potential Energy  = %14.7e\0A\00", align 1
@.str.98 = private unnamed_addr constant [39 x i8] c"Maximum force     = %14.7e on atom %d\0A\00", align 1
@.str.99 = private unnamed_addr constant [28 x i8] c"Norm of force     = %14.7e\0A\00", align 1

; Function Attrs: mustprogress uwtable
define internal void @_ZL15print_convergedP8_IO_FILEPKcflblPK8em_stated(ptr noundef %0, ptr noundef %1, float noundef %2, i64 noundef %3, i1 noundef zeroext %4, i64 noundef %5, ptr noundef %6, double noundef %7) #2 {
  %9 = alloca ptr, align 8
  %10 = alloca ptr, align 8
  %11 = alloca float, align 4
  %12 = alloca i64, align 8
  %13 = alloca i8, align 1
  %14 = alloca i64, align 8
  %15 = alloca ptr, align 8
  %16 = alloca double, align 8
  %17 = alloca [22 x i8], align 16
  store ptr %0, ptr %9, align 8
  store ptr %1, ptr %10, align 8
  store float %2, ptr %11, align 4
  store i64 %3, ptr %12, align 8
  %18 = zext i1 %4 to i8
  store i8 %18, ptr %13, align 1
  store i64 %5, ptr %14, align 8
  store ptr %6, ptr %15, align 8
  store double %7, ptr %16, align 8
  %19 = load i8, ptr %13, align 1
  %20 = trunc i8 %19 to i1
  br i1 %20, label %21, label %30

21:                                               ; preds = %8
  %22 = load ptr, ptr %9, align 8
  %23 = load ptr, ptr %10, align 8
  %24 = load float, ptr %11, align 4
  %25 = fpext float %24 to double
  %26 = load i64, ptr %12, align 8
  %27 = getelementptr inbounds [22 x i8], ptr %17, i64 0, i64 0
  %28 = call noundef ptr @_Z12gmx_step_strlPc(i64 noundef %26, ptr noundef %27)
  %29 = call i32 (ptr, ptr, ...) @fprintf(ptr noundef %22, ptr noundef @.str.94, ptr noundef %23, double noundef %25, ptr noundef %28) #4
  br label %53

30:                                               ; preds = %8
  %31 = load i64, ptr %12, align 8
  %32 = load i64, ptr %14, align 8
  %33 = icmp slt i64 %31, %32
  br i1 %33, label %34, label %43

34:                                               ; preds = %30
  %35 = load ptr, ptr %9, align 8
  %36 = load ptr, ptr %10, align 8
  %37 = load i64, ptr %12, align 8
  %38 = getelementptr inbounds [22 x i8], ptr %17, i64 0, i64 0
  %39 = call noundef ptr @_Z12gmx_step_strlPc(i64 noundef %37, ptr noundef %38)
  %40 = load float, ptr %11, align 4
  %41 = fpext float %40 to double
  %42 = call i32 (ptr, ptr, ...) @fprintf(ptr noundef %35, ptr noundef @.str.95, ptr noundef %36, ptr noundef %39, double noundef %41) #4
  br label %52

43:                                               ; preds = %30
  %44 = load ptr, ptr %9, align 8
  %45 = load ptr, ptr %10, align 8
  %46 = load float, ptr %11, align 4
  %47 = fpext float %46 to double
  %48 = load i64, ptr %12, align 8
  %49 = getelementptr inbounds [22 x i8], ptr %17, i64 0, i64 0
  %50 = call noundef ptr @_Z12gmx_step_strlPc(i64 noundef %48, ptr noundef %49)
  %51 = call i32 (ptr, ptr, ...) @fprintf(ptr noundef %44, ptr noundef @.str.96, ptr noundef %45, double noundef %47, ptr noundef %50) #4
  br label %52

52:                                               ; preds = %43, %34
  br label %53

53:                                               ; preds = %52, %21
  %54 = load ptr, ptr %9, align 8
  %55 = load ptr, ptr %15, align 8
  %56 = getelementptr inbounds %struct.em_state, ptr %55, i32 0, i32 2
  %57 = load float, ptr %56, align 8
  %58 = fpext float %57 to double
  %59 = call i32 (ptr, ptr, ...) @fprintf(ptr noundef %54, ptr noundef @.str.97, double noundef %58) #4
  %60 = load ptr, ptr %9, align 8
  %61 = load ptr, ptr %15, align 8
  %62 = getelementptr inbounds %struct.em_state, ptr %61, i32 0, i32 4
  %63 = load float, ptr %62, align 8
  %64 = fpext float %63 to double
  %65 = load ptr, ptr %15, align 8
  %66 = getelementptr inbounds %struct.em_state, ptr %65, i32 0, i32 5
  %67 = load i32, ptr %66, align 4
  %68 = add nsw i32 %67, 1
  %69 = call i32 (ptr, ptr, ...) @fprintf(ptr noundef %60, ptr noundef @.str.98, double noundef %64, i32 noundef %68) #4
  %70 = load ptr, ptr %9, align 8
  %71 = load ptr, ptr %15, align 8
  %72 = getelementptr inbounds %struct.em_state, ptr %71, i32 0, i32 3
  %73 = load float, ptr %72, align 4
  %74 = fpext float %73 to double
  %75 = load double, ptr %16, align 8
  %76 = fdiv double %74, %75
  %77 = call i32 (ptr, ptr, ...) @fprintf(ptr noundef %70, ptr noundef @.str.99, double noundef %76) #4
  ret void
}