; Function Attrs: mustprogress uwtable
define internal fastcc void @_ZL15print_convergedP8_IO_FILEPKcflblPK8em_stated(ptr nocapture noundef %0, ptr noundef %1, float noundef %2, i64 noundef %3, i1 noundef zeroext %4, i64 noundef %5, ptr nocapture noundef readonly %6, double noundef %7) unnamed_addr #1 {
  %9 = alloca [22 x i8], align 16
  br i1 %4, label %10, label %14

10:                                               ; preds = %8
  %11 = fpext float %2 to double
  %12 = call noundef ptr @_Z12gmx_step_strlPc(i64 noundef %3, ptr noundef nonnull %9)
  %13 = call i32 (ptr, ptr, ...) @fprintf(ptr noundef %0, ptr noundef nonnull @.str.94, ptr noundef %1, double noundef %11, ptr noundef %12) #17
  br label %24

14:                                               ; preds = %8
  %15 = icmp slt i64 %3, %5
  br i1 %15, label %16, label %20

16:                                               ; preds = %14
  %17 = call noundef ptr @_Z12gmx_step_strlPc(i64 noundef %3, ptr noundef nonnull %9)
  %18 = fpext float %2 to double
  %19 = call i32 (ptr, ptr, ...) @fprintf(ptr noundef %0, ptr noundef nonnull @.str.95, ptr noundef %1, ptr noundef %17, double noundef %18) #17
  br label %24

20:                                               ; preds = %14
  %21 = fpext float %2 to double
  %22 = call noundef ptr @_Z12gmx_step_strlPc(i64 noundef %3, ptr noundef nonnull %9)
  %23 = call i32 (ptr, ptr, ...) @fprintf(ptr noundef %0, ptr noundef nonnull @.str.96, ptr noundef %1, double noundef %21, ptr noundef %22) #17
  br label %24

24:                                               ; preds = %16, %20, %10
  %25 = getelementptr inbounds i8, ptr %6, i64 976
  %26 = load float, ptr %25, align 8
  %27 = fpext float %26 to double
  %28 = call i32 (ptr, ptr, ...) @fprintf(ptr noundef %0, ptr noundef nonnull @.str.97, double noundef %27) #17
  %29 = getelementptr inbounds i8, ptr %6, i64 984
  %30 = load float, ptr %29, align 8
  %31 = fpext float %30 to double
  %32 = getelementptr inbounds i8, ptr %6, i64 988
  %33 = load i32, ptr %32, align 4
  %34 = add nsw i32 %33, 1
  %35 = call i32 (ptr, ptr, ...) @fprintf(ptr noundef %0, ptr noundef nonnull @.str.98, double noundef %31, i32 noundef %34) #17
  %36 = getelementptr inbounds i8, ptr %6, i64 980
  %37 = load float, ptr %36, align 4
  %38 = fpext float %37 to double
  %39 = fdiv double %38, %7
  %40 = call i32 (ptr, ptr, ...) @fprintf(ptr noundef %0, ptr noundef nonnull @.str.99, double noundef %39) #17
  ret void
}